target datalayout = "e-m:e-p270:32:32-p271:32:32-p272:64:64-i64:64-i128:128-f80:128-n8:16:32:64-S128"
target triple = "x86_64-pc-linux-gnu"

@.str.18 = private unnamed_addr constant [33 x i8] c"../openssl/test/evp_extra_test.c\00", align 1
@.str.439 = private unnamed_addr constant [22 x i8] c"pkey = EVP_PKEY_new()\00", align 1
@.str.483 = private unnamed_addr constant [49 x i8] c"priv = BN_bin2bn(ec_priv, sizeof(ec_priv), NULL)\00", align 1
@ec_priv = internal global [32 x i8] c"\E9%\F7fX\A4\DD\99a\E7\E8#\85\C2\E83'\C5\\\EB\DBC\9F\D5\F2ZuU\D0.m\16", align 16
@ec_pub = internal global [65 x i8] c"\04\AD\11\90wKF\EErQ\15\97Jj\A7\AFY\FAK\F2A\C8:\81#\B6\90\04lgf\D0\DC\F2\15\1DAa\B7\95\858Z\84V\E8\B3\0E\F5\C6]\A4T&\B0\F7\A5J3\F1\08\09\B8\DB\03", align 16
@.str.507 = private unnamed_addr constant [3 x i8] c"qx\00", align 1
@.str.508 = private unnamed_addr constant [3 x i8] c"qy\00", align 1
@.str.509 = private unnamed_addr constant [37 x i8] c"pad = OPENSSL_zalloc(sizeof(ec_pub))\00", align 1
@.str.510 = private unnamed_addr constant [41 x i8] c"memcmp(ec_pub, pad, sizeof(ec_pub)) == 0\00", align 1
@.str.512 = private unnamed_addr constant [36 x i8] c"EC_KEY_set_private_key(eckey, priv)\00", align 1
@.str.513 = private unnamed_addr constant [36 x i8] c"EVP_PKEY_assign_EC_KEY(pkey, eckey)\00", align 1
@.str.518 = private unnamed_addr constant [28 x i8] c"libctx = OSSL_LIB_CTX_new()\00", align 1
@.str.519 = private unnamed_addr constant [72 x i8] c"eckey = EC_KEY_new_by_curve_name_ex(libctx, NULL, NID_X9_62_prime256v1)\00", align 1
@.str.520 = private unnamed_addr constant [36 x i8] c"x = BN_bin2bn(&ec_pub[1], 32, NULL)\00", align 1
@.str.521 = private unnamed_addr constant [37 x i8] c"y = BN_bin2bn(&ec_pub[33], 32, NULL)\00", align 1
@.str.522 = private unnamed_addr constant [54 x i8] c"EC_KEY_set_public_key_affine_coordinates(eckey, x, y)\00", align 1
@.str.523 = private unnamed_addr constant [58 x i8] c"EVP_PKEY_get_bn_param(pkey, OSSL_PKEY_PARAM_EC_PUB_X, &x)\00", align 1
@.str.524 = private unnamed_addr constant [58 x i8] c"EVP_PKEY_get_bn_param(pkey, OSSL_PKEY_PARAM_EC_PUB_Y, &y)\00", align 1

; Function Attrs: nounwind uwtable
define internal i32 @test_evp_get_ec_pub_legacy() #0 {
  %1 = alloca ptr, align 8
  %2 = alloca ptr, align 8
  %3 = alloca ptr, align 8
  %4 = alloca ptr, align 8
  %5 = alloca ptr, align 8
  %6 = alloca ptr, align 8
  %7 = alloca ptr, align 8
  %8 = alloca i32, align 4
  call void @llvm.lifetime.start.p0(i64 8, ptr %1) #8
  store ptr null, ptr %1, align 8, !tbaa !11
  call void @llvm.lifetime.start.p0(i64 8, ptr %2) #8
  store ptr null, ptr %2, align 8, !tbaa !4
  call void @llvm.lifetime.start.p0(i64 8, ptr %3) #8
  store ptr null, ptr %3, align 8, !tbaa !21
  call void @llvm.lifetime.start.p0(i64 8, ptr %4) #8
  store ptr null, ptr %4, align 8, !tbaa !83
  call void @llvm.lifetime.start.p0(i64 8, ptr %5) #8
  store ptr null, ptr %5, align 8, !tbaa !79
  call void @llvm.lifetime.start.p0(i64 8, ptr %6) #8
  store ptr null, ptr %6, align 8, !tbaa !79
  call void @llvm.lifetime.start.p0(i64 8, ptr %7) #8
  store ptr null, ptr %7, align 8, !tbaa !79
  call void @llvm.lifetime.start.p0(i64 4, ptr %8) #8
  store i32 0, ptr %8, align 4, !tbaa !9
  %9 = call ptr @OSSL_LIB_CTX_new()
  store ptr %9, ptr %1, align 8, !tbaa !11
  %10 = call i32 @test_ptr(ptr noundef @.str.18, i32 noundef 1441, ptr noundef @.str.518, ptr noundef %9)
  %11 = icmp ne i32 %10, 0
  br i1 %11, label %13, label %12

12:                                               ; preds = %0
  br label %109

13:                                               ; preds = %0
  %14 = load ptr, ptr %1, align 8, !tbaa !11
  %15 = call ptr @EC_KEY_new_by_curve_name_ex(ptr noundef %14, ptr noundef null, i32 noundef 415)
  store ptr %15, ptr %4, align 8, !tbaa !83
  %16 = call i32 @test_ptr(ptr noundef @.str.18, i32 noundef 1446, ptr noundef @.str.519, ptr noundef %15)
  %17 = icmp ne i32 %16, 0
  br i1 %17, label %19, label %18

18:                                               ; preds = %13
  br label %109

19:                                               ; preds = %13
  %20 = call ptr @BN_bin2bn(ptr noundef @ec_priv, i32 noundef 32, ptr noundef null)
  store ptr %20, ptr %5, align 8, !tbaa !79
  %21 = call i32 @test_ptr(ptr noundef @.str.18, i32 noundef 1449, ptr noundef @.str.483, ptr noundef %20)
  %22 = icmp ne i32 %21, 0
  br i1 %22, label %24, label %23

23:                                               ; preds = %19
  br label %109

24:                                               ; preds = %19
  %25 = load ptr, ptr %4, align 8, !tbaa !83
  %26 = load ptr, ptr %5, align 8, !tbaa !79
  %27 = call i32 @EC_KEY_set_private_key(ptr noundef %25, ptr noundef %26)
  %28 = icmp ne i32 %27, 0
  %29 = zext i1 %28 to i32
  %30 = call i32 @test_true(ptr noundef @.str.18, i32 noundef 1452, ptr noundef @.str.512, i32 noundef %29)
  %31 = icmp ne i32 %30, 0
  br i1 %31, label %33, label %32

32:                                               ; preds = %24
  br label %109

33:                                               ; preds = %24
  %34 = call ptr @BN_bin2bn(ptr noundef getelementptr inbounds ([65 x i8], ptr @ec_pub, i64 0, i64 1), i32 noundef 32, ptr noundef null)
  store ptr %34, ptr %6, align 8, !tbaa !79
  %35 = call i32 @test_ptr(ptr noundef @.str.18, i32 noundef 1455, ptr noundef @.str.520, ptr noundef %34)
  %36 = icmp ne i32 %35, 0
  br i1 %36, label %38, label %37

37:                                               ; preds = %33
  br label %109

38:                                               ; preds = %33
  %39 = call ptr @BN_bin2bn(ptr noundef getelementptr inbounds ([65 x i8], ptr @ec_pub, i64 0, i64 33), i32 noundef 32, ptr noundef null)
  store ptr %39, ptr %7, align 8, !tbaa !79
  %40 = call i32 @test_ptr(ptr noundef @.str.18, i32 noundef 1458, ptr noundef @.str.521, ptr noundef %39)
  %41 = icmp ne i32 %40, 0
  br i1 %41, label %43, label %42

42:                                               ; preds = %38
  br label %109

43:                                               ; preds = %38
  %44 = load ptr, ptr %4, align 8, !tbaa !83
  %45 = load ptr, ptr %6, align 8, !tbaa !79
  %46 = load ptr, ptr %7, align 8, !tbaa !79
  %47 = call i32 @EC_KEY_set_public_key_affine_coordinates(ptr noundef %44, ptr noundef %45, ptr noundef %46)
  %48 = icmp ne i32 %47, 0
  %49 = zext i1 %48 to i32
  %50 = call i32 @test_true(ptr noundef @.str.18, i32 noundef 1461, ptr noundef @.str.522, i32 noundef %49)
  %51 = icmp ne i32 %50, 0
  br i1 %51, label %53, label %52

52:                                               ; preds = %43
  br label %109

53:                                               ; preds = %43
  %54 = call ptr @EVP_PKEY_new()
  store ptr %54, ptr %3, align 8, !tbaa !21
  %55 = call i32 @test_ptr(ptr noundef @.str.18, i32 noundef 1464, ptr noundef @.str.439, ptr noundef %54)
  %56 = icmp ne i32 %55, 0
  br i1 %56, label %58, label %57

57:                                               ; preds = %53
  br label %109

58:                                               ; preds = %53
  %59 = load ptr, ptr %3, align 8, !tbaa !21
  %60 = load ptr, ptr %4, align 8, !tbaa !83
  %61 = call i32 @EVP_PKEY_assign(ptr noundef %59, i32 noundef 408, ptr noundef %60)
  %62 = icmp ne i32 %61, 0
  %63 = zext i1 %62 to i32
  %64 = call i32 @test_true(ptr noundef @.str.18, i32 noundef 1468, ptr noundef @.str.513, i32 noundef %63)
  %65 = icmp ne i32 %64, 0
  br i1 %65, label %67, label %66

66:                                               ; preds = %58
  br label %109

67:                                               ; preds = %58
  store ptr null, ptr %4, align 8, !tbaa !83
  %68 = load ptr, ptr %3, align 8, !tbaa !21
  %69 = call i32 @EVP_PKEY_get_bn_param(ptr noundef %68, ptr noundef @.str.507, ptr noundef %6)
  %70 = icmp ne i32 %69, 0
  %71 = zext i1 %70 to i32
  %72 = call i32 @test_true(ptr noundef @.str.18, i32 noundef 1472, ptr noundef @.str.523, i32 noundef %71)
  %73 = icmp ne i32 %72, 0
  br i1 %73, label %74, label %81

74:                                               ; preds = %67
  %75 = load ptr, ptr %3, align 8, !tbaa !21
  %76 = call i32 @EVP_PKEY_get_bn_param(ptr noundef %75, ptr noundef @.str.508, ptr noundef %7)
  %77 = icmp ne i32 %76, 0
  %78 = zext i1 %77 to i32
  %79 = call i32 @test_true(ptr noundef @.str.18, i32 noundef 1473, ptr noundef @.str.524, i32 noundef %78)
  %80 = icmp ne i32 %79, 0
  br i1 %80, label %82, label %81

81:                                               ; preds = %74, %67
  br label %109

82:                                               ; preds = %74
  %83 = call noalias ptr @CRYPTO_zalloc(i64 noundef 65, ptr noundef @.str.18, i32 noundef 1476)
  store ptr %83, ptr %2, align 8, !tbaa !4
  %84 = call i32 @test_ptr(ptr noundef @.str.18, i32 noundef 1476, ptr noundef @.str.509, ptr noundef %83)
  %85 = icmp ne i32 %84, 0
  br i1 %85, label %87, label %86

86:                                               ; preds = %82
  br label %109

87:                                               ; preds = %82
  %88 = load i8, ptr @ec_pub, align 16, !tbaa !82
  %89 = load ptr, ptr %2, align 8, !tbaa !4
  %90 = getelementptr inbounds i8, ptr %89, i64 0
  store i8 %88, ptr %90, align 1, !tbaa !82
  %91 = load ptr, ptr %6, align 8, !tbaa !79
  %92 = load ptr, ptr %2, align 8, !tbaa !4
  %93 = getelementptr inbounds i8, ptr %92, i64 1
  %94 = call i32 @BN_bn2bin(ptr noundef %91, ptr noundef %93)
  %95 = load ptr, ptr %7, align 8, !tbaa !79
  %96 = load ptr, ptr %2, align 8, !tbaa !4
  %97 = getelementptr inbounds i8, ptr %96, i64 33
  %98 = call i32 @BN_bn2bin(ptr noundef %95, ptr noundef %97)
  %99 = load ptr, ptr %2, align 8, !tbaa !4
  %100 = call i32 @memcmp(ptr noundef @ec_pub, ptr noundef %99, i64 noundef 65) #9
  %101 = icmp eq i32 %100, 0
  %102 = zext i1 %101 to i32
  %103 = icmp ne i32 %102, 0
  %104 = zext i1 %103 to i32
  %105 = call i32 @test_true(ptr noundef @.str.18, i32 noundef 1483, ptr noundef @.str.510, i32 noundef %104)
  %106 = icmp ne i32 %105, 0
  br i1 %106, label %108, label %107

107:                                              ; preds = %87
  br label %109

108:                                              ; preds = %87
  store i32 1, ptr %8, align 4, !tbaa !9
  br label %109

109:                                              ; preds = %108, %107, %86, %81, %66, %57, %52, %42, %37, %32, %23, %18, %12
  %110 = load ptr, ptr %1, align 8, !tbaa !11
  call void @OSSL_LIB_CTX_free(ptr noundef %110)
  %111 = load ptr, ptr %3, align 8, !tbaa !21
  call void @EVP_PKEY_free(ptr noundef %111)
  %112 = load ptr, ptr %4, align 8, !tbaa !83
  call void @EC_KEY_free(ptr noundef %112)
  %113 = load ptr, ptr %2, align 8, !tbaa !4
  call void @CRYPTO_free(ptr noundef %113, ptr noundef @.str.18, i32 noundef 1492)
  %114 = load ptr, ptr %5, align 8, !tbaa !79
  call void @BN_free(ptr noundef %114)
  %115 = load ptr, ptr %6, align 8, !tbaa !79
  call void @BN_free(ptr noundef %115)
  %116 = load ptr, ptr %7, align 8, !tbaa !79
  call void @BN_free(ptr noundef %116)
  %117 = load i32, ptr %8, align 4, !tbaa !9
  call void @llvm.lifetime.end.p0(i64 4, ptr %8) #8
  call void @llvm.lifetime.end.p0(i64 8, ptr %7) #8
  call void @llvm.lifetime.end.p0(i64 8, ptr %6) #8
  call void @llvm.lifetime.end.p0(i64 8, ptr %5) #8
  call void @llvm.lifetime.end.p0(i64 8, ptr %4) #8
  call void @llvm.lifetime.end.p0(i64 8, ptr %3) #8
  call void @llvm.lifetime.end.p0(i64 8, ptr %2) #8
  call void @llvm.lifetime.end.p0(i64 8, ptr %1) #8
  ret i32 %117
}