; Function Attrs: nounwind uwtable
define internal range(i32 0, 2) i32 @test_evp_get_ec_pub_legacy() #1 {
  %1 = alloca ptr, align 8
  %2 = alloca ptr, align 8
  call void @llvm.lifetime.start.p0(i64 8, ptr nonnull %1) #9
  store ptr null, ptr %1, align 8, !tbaa !51
  call void @llvm.lifetime.start.p0(i64 8, ptr nonnull %2) #9
  store ptr null, ptr %2, align 8, !tbaa !51
  %3 = tail call ptr @OSSL_LIB_CTX_new() #9
  %4 = tail call i32 @test_ptr(ptr noundef nonnull @.str.18, i32 noundef 1441, ptr noundef nonnull @.str.518, ptr noundef %3) #9
  %.not = icmp eq i32 %4, 0
  br i1 %.not, label %59, label %5

5:                                                ; preds = %0
  %6 = tail call ptr @EC_KEY_new_by_curve_name_ex(ptr noundef %3, ptr noundef null, i32 noundef 415) #9
  %7 = tail call i32 @test_ptr(ptr noundef nonnull @.str.18, i32 noundef 1446, ptr noundef nonnull @.str.519, ptr noundef %6) #9
  %.not21 = icmp eq i32 %7, 0
  br i1 %.not21, label %59, label %8

8:                                                ; preds = %5
  %9 = tail call ptr @BN_bin2bn(ptr noundef nonnull @ec_priv, i32 noundef 32, ptr noundef null) #9
  %10 = tail call i32 @test_ptr(ptr noundef nonnull @.str.18, i32 noundef 1449, ptr noundef nonnull @.str.483, ptr noundef %9) #9
  %.not22 = icmp eq i32 %10, 0
  br i1 %.not22, label %59, label %11

11:                                               ; preds = %8
  %12 = tail call i32 @EC_KEY_set_private_key(ptr noundef %6, ptr noundef %9) #9
  %13 = icmp ne i32 %12, 0
  %14 = zext i1 %13 to i32
  %15 = tail call i32 @test_true(ptr noundef nonnull @.str.18, i32 noundef 1452, ptr noundef nonnull @.str.512, i32 noundef %14) #9
  %.not23 = icmp eq i32 %15, 0
  br i1 %.not23, label %59, label %16

16:                                               ; preds = %11
  %17 = tail call ptr @BN_bin2bn(ptr noundef nonnull getelementptr inbounds nuw (i8, ptr @ec_pub, i64 1), i32 noundef 32, ptr noundef null) #9
  store ptr %17, ptr %1, align 8, !tbaa !51
  %18 = tail call i32 @test_ptr(ptr noundef nonnull @.str.18, i32 noundef 1455, ptr noundef nonnull @.str.520, ptr noundef %17) #9
  %.not24 = icmp eq i32 %18, 0
  br i1 %.not24, label %59, label %19

19:                                               ; preds = %16
  %20 = tail call ptr @BN_bin2bn(ptr noundef nonnull getelementptr inbounds nuw (i8, ptr @ec_pub, i64 33), i32 noundef 32, ptr noundef null) #9
  store ptr %20, ptr %2, align 8, !tbaa !51
  %21 = tail call i32 @test_ptr(ptr noundef nonnull @.str.18, i32 noundef 1458, ptr noundef nonnull @.str.521, ptr noundef %20) #9
  %.not25 = icmp eq i32 %21, 0
  br i1 %.not25, label %59, label %22

22:                                               ; preds = %19
  %23 = tail call i32 @EC_KEY_set_public_key_affine_coordinates(ptr noundef %6, ptr noundef %17, ptr noundef %20) #9
  %24 = icmp ne i32 %23, 0
  %25 = zext i1 %24 to i32
  %26 = tail call i32 @test_true(ptr noundef nonnull @.str.18, i32 noundef 1461, ptr noundef nonnull @.str.522, i32 noundef %25) #9
  %.not26 = icmp eq i32 %26, 0
  br i1 %.not26, label %59, label %27

27:                                               ; preds = %22
  %28 = tail call ptr @EVP_PKEY_new() #9
  %29 = tail call i32 @test_ptr(ptr noundef nonnull @.str.18, i32 noundef 1464, ptr noundef nonnull @.str.439, ptr noundef %28) #9
  %.not27 = icmp eq i32 %29, 0
  br i1 %.not27, label %59, label %30

30:                                               ; preds = %27
  %31 = tail call i32 @EVP_PKEY_assign(ptr noundef %28, i32 noundef 408, ptr noundef %6) #9
  %32 = icmp ne i32 %31, 0
  %33 = zext i1 %32 to i32
  %34 = tail call i32 @test_true(ptr noundef nonnull @.str.18, i32 noundef 1468, ptr noundef nonnull @.str.513, i32 noundef %33) #9
  %.not28 = icmp eq i32 %34, 0
  br i1 %.not28, label %59, label %35

35:                                               ; preds = %30
  %36 = call i32 @EVP_PKEY_get_bn_param(ptr noundef %28, ptr noundef nonnull @.str.507, ptr noundef nonnull %1) #9
  %37 = icmp ne i32 %36, 0
  %38 = zext i1 %37 to i32
  %39 = call i32 @test_true(ptr noundef nonnull @.str.18, i32 noundef 1472, ptr noundef nonnull @.str.523, i32 noundef %38) #9
  %.not29 = icmp eq i32 %39, 0
  br i1 %.not29, label %59, label %40

40:                                               ; preds = %35
  %41 = call i32 @EVP_PKEY_get_bn_param(ptr noundef %28, ptr noundef nonnull @.str.508, ptr noundef nonnull %2) #9
  %42 = icmp ne i32 %41, 0
  %43 = zext i1 %42 to i32
  %44 = call i32 @test_true(ptr noundef nonnull @.str.18, i32 noundef 1473, ptr noundef nonnull @.str.524, i32 noundef %43) #9
  %.not30 = icmp eq i32 %44, 0
  br i1 %.not30, label %59, label %45

45:                                               ; preds = %40
  %46 = call noalias ptr @CRYPTO_zalloc(i64 noundef 65, ptr noundef nonnull @.str.18, i32 noundef 1476) #9
  %47 = call i32 @test_ptr(ptr noundef nonnull @.str.18, i32 noundef 1476, ptr noundef nonnull @.str.509, ptr noundef %46) #9
  %.not31 = icmp eq i32 %47, 0
  br i1 %.not31, label %59, label %48

48:                                               ; preds = %45
  %49 = load i8, ptr @ec_pub, align 16, !tbaa !52
  store i8 %49, ptr %46, align 1, !tbaa !52
  %50 = load ptr, ptr %1, align 8, !tbaa !51
  %51 = getelementptr inbounds nuw i8, ptr %46, i64 1
  %52 = call i32 @BN_bn2bin(ptr noundef %50, ptr noundef nonnull %51) #9
  %53 = load ptr, ptr %2, align 8, !tbaa !51
  %54 = getelementptr inbounds nuw i8, ptr %46, i64 33
  %55 = call i32 @BN_bn2bin(ptr noundef %53, ptr noundef nonnull %54) #9
  %bcmp = call i32 @bcmp(ptr noundef nonnull dereferenceable(65) @ec_pub, ptr noundef nonnull dereferenceable(65) %46, i64 65)
  %56 = icmp eq i32 %bcmp, 0
  %57 = zext i1 %56 to i32
  %58 = call i32 @test_true(ptr noundef nonnull @.str.18, i32 noundef 1483, ptr noundef nonnull @.str.510, i32 noundef %57) #9
  %.not32 = icmp ne i32 %58, 0
  %spec.select = zext i1 %.not32 to i32
  br label %59

59:                                               ; preds = %48, %45, %35, %40, %30, %27, %22, %19, %16, %11, %8, %5, %0
  %.020 = phi ptr [ %46, %45 ], [ null, %40 ], [ null, %35 ], [ null, %30 ], [ null, %27 ], [ null, %22 ], [ null, %19 ], [ null, %16 ], [ null, %11 ], [ null, %8 ], [ null, %5 ], [ null, %0 ], [ %46, %48 ]
  %.019 = phi ptr [ %28, %45 ], [ %28, %40 ], [ %28, %35 ], [ %28, %30 ], [ %28, %27 ], [ null, %22 ], [ null, %19 ], [ null, %16 ], [ null, %11 ], [ null, %8 ], [ null, %5 ], [ null, %0 ], [ %28, %48 ]
  %.018 = phi ptr [ null, %45 ], [ null, %40 ], [ null, %35 ], [ %6, %30 ], [ %6, %27 ], [ %6, %22 ], [ %6, %19 ], [ %6, %16 ], [ %6, %11 ], [ %6, %8 ], [ %6, %5 ], [ null, %0 ], [ null, %48 ]
  %.017 = phi ptr [ %9, %45 ], [ %9, %40 ], [ %9, %35 ], [ %9, %30 ], [ %9, %27 ], [ %9, %22 ], [ %9, %19 ], [ %9, %16 ], [ %9, %11 ], [ %9, %8 ], [ null, %5 ], [ null, %0 ], [ %9, %48 ]
  %.0 = phi i32 [ 0, %45 ], [ 0, %40 ], [ 0, %35 ], [ 0, %30 ], [ 0, %27 ], [ 0, %22 ], [ 0, %19 ], [ 0, %16 ], [ 0, %11 ], [ 0, %8 ], [ 0, %5 ], [ 0, %0 ], [ %spec.select, %48 ]
  call void @OSSL_LIB_CTX_free(ptr noundef %3) #9
  call void @EVP_PKEY_free(ptr noundef %.019) #9
  call void @EC_KEY_free(ptr noundef %.018) #9
  call void @CRYPTO_free(ptr noundef %.020, ptr noundef nonnull @.str.18, i32 noundef 1492) #9
  call void @BN_free(ptr noundef %.017) #9
  %60 = load ptr, ptr %1, align 8, !tbaa !51
  call void @BN_free(ptr noundef %60) #9
  %61 = load ptr, ptr %2, align 8, !tbaa !51
  call void @BN_free(ptr noundef %61) #9
  call void @llvm.lifetime.end.p0(i64 8, ptr nonnull %2) #9
  call void @llvm.lifetime.end.p0(i64 8, ptr nonnull %1) #9
  ret i32 %.0
}